target datalayout = "e-m:e-p270:32:32-p271:32:32-p272:64:64-i64:64-i128:128-f80:128-n8:16:32:64-S128"
target triple = "x86_64-pc-linux-gnu"

%struct.KDF_HKDF = type { ptr, i32, %struct.PROV_DIGEST, ptr, i64, ptr, i64, ptr, i64, ptr, i64, ptr, i64, ptr, i64 }
%struct.PROV_DIGEST = type { ptr, ptr, ptr }
%struct.ossl_param_st = type { ptr, i32, ptr, i64, i64 }

@.str = private unnamed_addr constant [49 x i8] c"../openssl/providers/implementations/kdfs/hkdf.c\00", align 1
@.str.12 = private unnamed_addr constant [7 x i8] c"prefix\00", align 1
@.str.13 = private unnamed_addr constant [6 x i8] c"label\00", align 1
@.str.14 = private unnamed_addr constant [5 x i8] c"data\00", align 1
@__func__.kdf_tls1_3_set_ctx_params = private unnamed_addr constant [26 x i8] c"kdf_tls1_3_set_ctx_params\00", align 1

; Function Attrs: inlinehint nounwind uwtable
define internal i32 @ossl_param_is_empty(ptr noundef %0) #5 {
  %2 = alloca ptr, align 8
  store ptr %0, ptr %2, align 8, !tbaa !30
  %3 = load ptr, ptr %2, align 8, !tbaa !30
  %4 = icmp eq ptr %3, null
  br i1 %4, label %10, label %5

5:                                                ; preds = %1
  %6 = load ptr, ptr %2, align 8, !tbaa !30
  %7 = getelementptr inbounds nuw %struct.ossl_param_st, ptr %6, i32 0, i32 0
  %8 = load ptr, ptr %7, align 8, !tbaa !41
  %9 = icmp eq ptr %8, null
  br label %10

10:                                               ; preds = %5, %1
  %11 = phi i1 [ true, %1 ], [ %9, %5 ]
  %12 = zext i1 %11 to i32
  ret i32 %12
}

; Function Attrs: nounwind uwtable
define internal i32 @kdf_tls1_3_set_ctx_params(ptr noundef %0, ptr noundef %1) #0 {
  %3 = alloca i32, align 4
  %4 = alloca ptr, align 8
  %5 = alloca ptr, align 8
  %6 = alloca ptr, align 8
  %7 = alloca ptr, align 8
  %8 = alloca i32, align 4
  store ptr %0, ptr %4, align 8, !tbaa !3
  store ptr %1, ptr %5, align 8, !tbaa !30
  call void @llvm.lifetime.start.p0(i64 8, ptr %6) #6
  call void @llvm.lifetime.start.p0(i64 8, ptr %7) #6
  %9 = load ptr, ptr %4, align 8, !tbaa !3
  store ptr %9, ptr %7, align 8, !tbaa !3
  %10 = load ptr, ptr %5, align 8, !tbaa !30
  %11 = call i32 @ossl_param_is_empty(ptr noundef %10)
  %12 = icmp ne i32 %11, 0
  br i1 %12, label %13, label %14

13:                                               ; preds = %2
  store i32 1, ptr %3, align 4
  store i32 1, ptr %8, align 4
  br label %86

14:                                               ; preds = %2
  %15 = load ptr, ptr %7, align 8, !tbaa !3
  %16 = load ptr, ptr %5, align 8, !tbaa !30
  %17 = call i32 @hkdf_common_set_ctx_params(ptr noundef %15, ptr noundef %16)
  %18 = icmp ne i32 %17, 0
  br i1 %18, label %20, label %19

19:                                               ; preds = %14
  store i32 0, ptr %3, align 4
  store i32 1, ptr %8, align 4
  br label %86

20:                                               ; preds = %14
  %21 = load ptr, ptr %7, align 8, !tbaa !3
  %22 = getelementptr inbounds nuw %struct.KDF_HKDF, ptr %21, i32 0, i32 1
  %23 = load i32, ptr %22, align 8, !tbaa !27
  %24 = icmp eq i32 %23, 0
  br i1 %24, label %25, label %26

25:                                               ; preds = %20
  call void @ERR_new()
  call void @ERR_set_debug(ptr noundef @.str, i32 noundef 858, ptr noundef @__func__.kdf_tls1_3_set_ctx_params)
  call void (i32, i32, ptr, ...) @ERR_set_error(i32 noundef 57, i32 noundef 125, ptr noundef null)
  store i32 0, ptr %3, align 4
  store i32 1, ptr %8, align 4
  br label %86

26:                                               ; preds = %20
  %27 = load ptr, ptr %5, align 8, !tbaa !30
  %28 = call ptr @OSSL_PARAM_locate_const(ptr noundef %27, ptr noundef @.str.12)
  store ptr %28, ptr %6, align 8, !tbaa !30
  %29 = icmp ne ptr %28, null
  br i1 %29, label %30, label %45

30:                                               ; preds = %26
  %31 = load ptr, ptr %7, align 8, !tbaa !3
  %32 = getelementptr inbounds nuw %struct.KDF_HKDF, ptr %31, i32 0, i32 7
  %33 = load ptr, ptr %32, align 8, !tbaa !19
  call void @CRYPTO_free(ptr noundef %33, ptr noundef @.str, i32 noundef 863)
  %34 = load ptr, ptr %7, align 8, !tbaa !3
  %35 = getelementptr inbounds nuw %struct.KDF_HKDF, ptr %34, i32 0, i32 7
  store ptr null, ptr %35, align 8, !tbaa !19
  %36 = load ptr, ptr %6, align 8, !tbaa !30
  %37 = load ptr, ptr %7, align 8, !tbaa !3
  %38 = getelementptr inbounds nuw %struct.KDF_HKDF, ptr %37, i32 0, i32 7
  %39 = load ptr, ptr %7, align 8, !tbaa !3
  %40 = getelementptr inbounds nuw %struct.KDF_HKDF, ptr %39, i32 0, i32 8
  %41 = call i32 @OSSL_PARAM_get_octet_string(ptr noundef %36, ptr noundef %38, i64 noundef 0, ptr noundef %40)
  %42 = icmp ne i32 %41, 0
  br i1 %42, label %44, label %43

43:                                               ; preds = %30
  store i32 0, ptr %3, align 4
  store i32 1, ptr %8, align 4
  br label %86

44:                                               ; preds = %30
  br label %45

45:                                               ; preds = %44, %26
  %46 = load ptr, ptr %5, align 8, !tbaa !30
  %47 = call ptr @OSSL_PARAM_locate_const(ptr noundef %46, ptr noundef @.str.13)
  store ptr %47, ptr %6, align 8, !tbaa !30
  %48 = icmp ne ptr %47, null
  br i1 %48, label %49, label %64

49:                                               ; preds = %45
  %50 = load ptr, ptr %7, align 8, !tbaa !3
  %51 = getelementptr inbounds nuw %struct.KDF_HKDF, ptr %50, i32 0, i32 9
  %52 = load ptr, ptr %51, align 8, !tbaa !21
  call void @CRYPTO_free(ptr noundef %52, ptr noundef @.str, i32 noundef 871)
  %53 = load ptr, ptr %7, align 8, !tbaa !3
  %54 = getelementptr inbounds nuw %struct.KDF_HKDF, ptr %53, i32 0, i32 9
  store ptr null, ptr %54, align 8, !tbaa !21
  %55 = load ptr, ptr %6, align 8, !tbaa !30
  %56 = load ptr, ptr %7, align 8, !tbaa !3
  %57 = getelementptr inbounds nuw %struct.KDF_HKDF, ptr %56, i32 0, i32 9
  %58 = load ptr, ptr %7, align 8, !tbaa !3
  %59 = getelementptr inbounds nuw %struct.KDF_HKDF, ptr %58, i32 0, i32 10
  %60 = call i32 @OSSL_PARAM_get_octet_string(ptr noundef %55, ptr noundef %57, i64 noundef 0, ptr noundef %59)
  %61 = icmp ne i32 %60, 0
  br i1 %61, label %63, label %62

62:                                               ; preds = %49
  store i32 0, ptr %3, align 4
  store i32 1, ptr %8, align 4
  br label %86

63:                                               ; preds = %49
  br label %64

64:                                               ; preds = %63, %45
  %65 = load ptr, ptr %7, align 8, !tbaa !3
  %66 = getelementptr inbounds nuw %struct.KDF_HKDF, ptr %65, i32 0, i32 11
  %67 = load ptr, ptr %66, align 8, !tbaa !23
  %68 = load ptr, ptr %7, align 8, !tbaa !3
  %69 = getelementptr inbounds nuw %struct.KDF_HKDF, ptr %68, i32 0, i32 12
  %70 = load i64, ptr %69, align 8, !tbaa !24
  call void @CRYPTO_clear_free(ptr noundef %67, i64 noundef %70, ptr noundef @.str, i32 noundef 878)
  %71 = load ptr, ptr %7, align 8, !tbaa !3
  %72 = getelementptr inbounds nuw %struct.KDF_HKDF, ptr %71, i32 0, i32 11
  store ptr null, ptr %72, align 8, !tbaa !23
  %73 = load ptr, ptr %5, align 8, !tbaa !30
  %74 = call ptr @OSSL_PARAM_locate_const(ptr noundef %73, ptr noundef @.str.14)
  store ptr %74, ptr %6, align 8, !tbaa !30
  %75 = icmp ne ptr %74, null
  br i1 %75, label %76, label %85

76:                                               ; preds = %64
  %77 = load ptr, ptr %6, align 8, !tbaa !30
  %78 = load ptr, ptr %7, align 8, !tbaa !3
  %79 = getelementptr inbounds nuw %struct.KDF_HKDF, ptr %78, i32 0, i32 11
  %80 = load ptr, ptr %7, align 8, !tbaa !3
  %81 = getelementptr inbounds nuw %struct.KDF_HKDF, ptr %80, i32 0, i32 12
  %82 = call i32 @OSSL_PARAM_get_octet_string(ptr noundef %77, ptr noundef %79, i64 noundef 0, ptr noundef %81)
  %83 = icmp ne i32 %82, 0
  br i1 %83, label %85, label %84

84:                                               ; preds = %76
  store i32 0, ptr %3, align 4
  store i32 1, ptr %8, align 4
  br label %86

85:                                               ; preds = %76, %64
  store i32 1, ptr %3, align 4
  store i32 1, ptr %8, align 4
  br label %86

86:                                               ; preds = %85, %84, %62, %43, %25, %19, %13
  call void @llvm.lifetime.end.p0(i64 8, ptr %7) #6
  call void @llvm.lifetime.end.p0(i64 8, ptr %6) #6
  %87 = load i32, ptr %3, align 4
  ret i32 %87
}