; Function Attrs: nounwind uwtable
define internal range(i32 0, 2) i32 @kdf_tls1_3_set_ctx_params(ptr noundef %0, ptr noundef %1) #0 {
  %3 = icmp eq ptr %1, null
  br i1 %3, label %ossl_param_is_empty.exit.thread, label %ossl_param_is_empty.exit

ossl_param_is_empty.exit:                         ; preds = %2
  %4 = load ptr, ptr %1, align 8, !tbaa !27
  %.not = icmp eq ptr %4, null
  br i1 %.not, label %ossl_param_is_empty.exit.thread, label %5

5:                                                ; preds = %ossl_param_is_empty.exit
  %6 = tail call fastcc i32 @hkdf_common_set_ctx_params(ptr noundef %0, ptr noundef nonnull %1)
  %.not27 = icmp eq i32 %6, 0
  br i1 %.not27, label %ossl_param_is_empty.exit.thread, label %7

7:                                                ; preds = %5
  %8 = getelementptr inbounds nuw i8, ptr %0, i64 8
  %9 = load i32, ptr %8, align 8, !tbaa !26
  %10 = icmp eq i32 %9, 0
  br i1 %10, label %11, label %12

11:                                               ; preds = %7
  tail call void @ERR_new() #7
  tail call void @ERR_set_debug(ptr noundef nonnull @.str, i32 noundef 858, ptr noundef nonnull @__func__.kdf_tls1_3_set_ctx_params) #7
  tail call void (i32, i32, ptr, ...) @ERR_set_error(i32 noundef 57, i32 noundef 125, ptr noundef null) #7
  br label %ossl_param_is_empty.exit.thread

12:                                               ; preds = %7
  %13 = tail call ptr @OSSL_PARAM_locate_const(ptr noundef nonnull %1, ptr noundef nonnull @.str.12) #7
  %.not28 = icmp eq ptr %13, null
  br i1 %.not28, label %19, label %14

14:                                               ; preds = %12
  %15 = getelementptr inbounds nuw i8, ptr %0, i64 72
  %16 = load ptr, ptr %15, align 8, !tbaa !18
  tail call void @CRYPTO_free(ptr noundef %16, ptr noundef nonnull @.str, i32 noundef 863) #7
  store ptr null, ptr %15, align 8, !tbaa !18
  %17 = getelementptr inbounds nuw i8, ptr %0, i64 80
  %18 = tail call i32 @OSSL_PARAM_get_octet_string(ptr noundef nonnull %13, ptr noundef nonnull %15, i64 noundef 0, ptr noundef nonnull %17) #7
  %.not29 = icmp eq i32 %18, 0
  br i1 %.not29, label %ossl_param_is_empty.exit.thread, label %19

19:                                               ; preds = %14, %12
  %20 = tail call ptr @OSSL_PARAM_locate_const(ptr noundef nonnull %1, ptr noundef nonnull @.str.13) #7
  %.not30 = icmp eq ptr %20, null
  br i1 %.not30, label %26, label %21

21:                                               ; preds = %19
  %22 = getelementptr inbounds nuw i8, ptr %0, i64 88
  %23 = load ptr, ptr %22, align 8, !tbaa !20
  tail call void @CRYPTO_free(ptr noundef %23, ptr noundef nonnull @.str, i32 noundef 871) #7
  store ptr null, ptr %22, align 8, !tbaa !20
  %24 = getelementptr inbounds nuw i8, ptr %0, i64 96
  %25 = tail call i32 @OSSL_PARAM_get_octet_string(ptr noundef nonnull %20, ptr noundef nonnull %22, i64 noundef 0, ptr noundef nonnull %24) #7
  %.not31 = icmp eq i32 %25, 0
  br i1 %.not31, label %ossl_param_is_empty.exit.thread, label %26

26:                                               ; preds = %21, %19
  %27 = getelementptr inbounds nuw i8, ptr %0, i64 104
  %28 = load ptr, ptr %27, align 8, !tbaa !22
  %29 = getelementptr inbounds nuw i8, ptr %0, i64 112
  %30 = load i64, ptr %29, align 8, !tbaa !23
  tail call void @CRYPTO_clear_free(ptr noundef %28, i64 noundef %30, ptr noundef nonnull @.str, i32 noundef 878) #7
  store ptr null, ptr %27, align 8, !tbaa !22
  %31 = tail call ptr @OSSL_PARAM_locate_const(ptr noundef nonnull %1, ptr noundef nonnull @.str.14) #7
  %.not32 = icmp eq ptr %31, null
  br i1 %.not32, label %34, label %32

32:                                               ; preds = %26
  %33 = tail call i32 @OSSL_PARAM_get_octet_string(ptr noundef nonnull %31, ptr noundef nonnull %27, i64 noundef 0, ptr noundef nonnull %29) #7
  %.not33 = icmp eq i32 %33, 0
  br i1 %.not33, label %ossl_param_is_empty.exit.thread, label %34

34:                                               ; preds = %32, %26
  br label %ossl_param_is_empty.exit.thread

ossl_param_is_empty.exit.thread:                  ; preds = %2, %32, %21, %14, %5, %ossl_param_is_empty.exit, %34, %11
  %.0 = phi i32 [ 0, %11 ], [ 1, %34 ], [ 1, %ossl_param_is_empty.exit ], [ 0, %5 ], [ 0, %14 ], [ 0, %21 ], [ 0, %32 ], [ 1, %2 ]
  ret i32 %.0
}